; ModuleID = '24/2214.c'
source_filename = "24/2214.c"
target datalayout = "e-m:e-p270:32:32-p271:32:32-p272:64:64-i64:64-f80:128-n8:16:32:64-S128"
target triple = "x86_64-pc-linux-gnu"

@s = common dso_local global [5000 x i8] zeroinitializer, align 16
@word = common dso_local global [200 x [20 x i8]] zeroinitializer, align 16
@.str = private unnamed_addr constant [6 x i8] c"%s\0A%s\00", align 1
@.str.1 = private unnamed_addr constant [3 x i8] c"%d\00", align 1

; Function Attrs: noinline nounwind uwtable
define dso_local i32 @checknum(i32 %0) #0 {
  %2 = alloca i32, align 4
  %3 = alloca i32, align 4
  store i32 %0, i32* %3, align 4
  %4 = load i32, i32* %3, align 4
  %5 = sext i32 %4 to i64
  %6 = getelementptr inbounds [5000 x i8], [5000 x i8]* @s, i64 0, i64 %5
  %7 = load i8, i8* %6, align 1
  %8 = sext i8 %7 to i32
  %9 = icmp ne i32 %8, 32
  br i1 %9, label %10, label %43

10:                                               ; preds = %1
  %11 = load i32, i32* %3, align 4
  %12 = sext i32 %11 to i64
  %13 = getelementptr inbounds [5000 x i8], [5000 x i8]* @s, i64 0, i64 %12
  %14 = load i8, i8* %13, align 1
  %15 = sext i8 %14 to i32
  %16 = icmp ne i32 %15, 44
  br i1 %16, label %17, label %43

17:                                               ; preds = %10
  %18 = load i32, i32* %3, align 4
  %19 = sext i32 %18 to i64
  %20 = call i64 @strlen(i8* getelementptr inbounds ([5000 x i8], [5000 x i8]* @s, i64 0, i64 0)) #4
  %21 = icmp ult i64 %19, %20
  br i1 %21, label %22, label %43

22:                                               ; preds = %17
  %23 = load i32, i32* %3, align 4
  %24 = sub nsw i32 %23, 1
  %25 = sext i32 %24 to i64
  %26 = getelementptr inbounds [5000 x i8], [5000 x i8]* @s, i64 0, i64 %25
  %27 = load i8, i8* %26, align 1
  %28 = sext i8 %27 to i32
  %29 = icmp eq i32 %28, 32
  br i1 %29, label %42, label %30

30:                                               ; preds = %22
  %31 = load i32, i32* %3, align 4
  %32 = sub nsw i32 %31, 1
  %33 = sext i32 %32 to i64
  %34 = getelementptr inbounds [5000 x i8], [5000 x i8]* @s, i64 0, i64 %33
  %35 = load i8, i8* %34, align 1
  %36 = sext i8 %35 to i32
  %37 = icmp eq i32 %36, 44
  br i1 %37, label %42, label %38

38:                                               ; preds = %30
  %39 = load i32, i32* %3, align 4
  %40 = sub nsw i32 %39, 1
  %41 = icmp slt i32 %40, 0
  br i1 %41, label %42, label %43

42:                                               ; preds = %38, %30, %22
  store i32 1, i32* %2, align 4
  br label %44

43:                                               ; preds = %38, %17, %10, %1
  store i32 0, i32* %2, align 4
  br label %44

44:                                               ; preds = %43, %42
  %45 = load i32, i32* %2, align 4
  ret i32 %45
}

; Function Attrs: nounwind readonly
declare dso_local i64 @strlen(i8*) #1

; Function Attrs: noinline nounwind uwtable
define dso_local i32 @findlen(i32 %0) #0 {
  %2 = alloca i32, align 4
  %3 = alloca i32, align 4
  store i32 %0, i32* %2, align 4
  store i32 0, i32* %3, align 4
  br label %4

4:                                                ; preds = %31, %1
  %5 = load i32, i32* %2, align 4
  %6 = load i32, i32* %3, align 4
  %7 = add nsw i32 %5, %6
  %8 = sext i32 %7 to i64
  %9 = getelementptr inbounds [5000 x i8], [5000 x i8]* @s, i64 0, i64 %8
  %10 = load i8, i8* %9, align 1
  %11 = sext i8 %10 to i32
  %12 = icmp ne i32 %11, 32
  br i1 %12, label %13, label %29

13:                                               ; preds = %4
  %14 = load i32, i32* %2, align 4
  %15 = load i32, i32* %3, align 4
  %16 = add nsw i32 %14, %15
  %17 = sext i32 %16 to i64
  %18 = getelementptr inbounds [5000 x i8], [5000 x i8]* @s, i64 0, i64 %17
  %19 = load i8, i8* %18, align 1
  %20 = sext i8 %19 to i32
  %21 = icmp ne i32 %20, 44
  br i1 %21, label %22, label %29

22:                                               ; preds = %13
  %23 = load i32, i32* %2, align 4
  %24 = load i32, i32* %3, align 4
  %25 = add nsw i32 %23, %24
  %26 = sext i32 %25 to i64
  %27 = call i64 @strlen(i8* getelementptr inbounds ([5000 x i8], [5000 x i8]* @s, i64 0, i64 0)) #4
  %28 = icmp ult i64 %26, %27
  br label %29

29:                                               ; preds = %22, %13, %4
  %30 = phi i1 [ false, %13 ], [ false, %4 ], [ %28, %22 ]
  br i1 %30, label %31, label %34

31:                                               ; preds = %29
  %32 = load i32, i32* %3, align 4
  %33 = add nsw i32 %32, 1
  store i32 %33, i32* %3, align 4
  br label %4

34:                                               ; preds = %29
  %35 = load i32, i32* %3, align 4
  ret i32 %35
}

; Function Attrs: noinline nounwind uwtable
define dso_local i32 @main() #0 {
  %1 = alloca i32, align 4
  %2 = alloca i32, align 4
  %3 = alloca i32, align 4
  %4 = alloca i32, align 4
  %5 = alloca i32, align 4
  %6 = alloca i32, align 4
  %7 = alloca i32, align 4
  %8 = alloca i32, align 4
  store i32 0, i32* %1, align 4
  %9 = call i32 (i8*, ...) bitcast (i32 (...)* @gets to i32 (i8*, ...)*)(i8* getelementptr inbounds ([5000 x i8], [5000 x i8]* @s, i64 0, i64 0))
  store i32 0, i32* %4, align 4
  store i32 0, i32* %2, align 4
  store i32 0, i32* %5, align 4
  store i32 20, i32* %6, align 4
  br label %10

10:                                               ; preds = %51, %0
  %11 = load i32, i32* %2, align 4
  %12 = sext i32 %11 to i64
  %13 = call i64 @strlen(i8* getelementptr inbounds ([5000 x i8], [5000 x i8]* @s, i64 0, i64 0)) #4
  %14 = icmp ult i64 %12, %13
  br i1 %14, label %15, label %54

15:                                               ; preds = %10
  %16 = load i32, i32* %2, align 4
  %17 = call i32 @checknum(i32 %16)
  %18 = icmp eq i32 %17, 1
  br i1 %18, label %19, label %51

19:                                               ; preds = %15
  %20 = load i32, i32* %4, align 4
  %21 = sext i32 %20 to i64
  %22 = getelementptr inbounds [200 x [20 x i8]], [200 x [20 x i8]]* @word, i64 0, i64 %21
  %23 = getelementptr inbounds [20 x i8], [20 x i8]* %22, i64 0, i64 0
  %24 = load i32, i32* %2, align 4
  %25 = sext i32 %24 to i64
  %26 = getelementptr inbounds i8, i8* getelementptr inbounds ([5000 x i8], [5000 x i8]* @s, i64 0, i64 0), i64 %25
  %27 = load i32, i32* %2, align 4
  %28 = call i32 @findlen(i32 %27)
  %29 = sext i32 %28 to i64
  %30 = call i8* @strncpy(i8* %23, i8* %26, i64 %29) #5
  %31 = load i32, i32* %5, align 4
  %32 = load i32, i32* %2, align 4
  %33 = call i32 @findlen(i32 %32)
  %34 = icmp slt i32 %31, %33
  br i1 %34, label %35, label %39

35:                                               ; preds = %19
  %36 = load i32, i32* %2, align 4
  %37 = call i32 @findlen(i32 %36)
  store i32 %37, i32* %5, align 4
  %38 = load i32, i32* %4, align 4
  store i32 %38, i32* %7, align 4
  br label %39

39:                                               ; preds = %35, %19
  %40 = load i32, i32* %6, align 4
  %41 = load i32, i32* %2, align 4
  %42 = call i32 @findlen(i32 %41)
  %43 = icmp sgt i32 %40, %42
  br i1 %43, label %44, label %48

44:                                               ; preds = %39
  %45 = load i32, i32* %2, align 4
  %46 = call i32 @findlen(i32 %45)
  store i32 %46, i32* %6, align 4
  %47 = load i32, i32* %4, align 4
  store i32 %47, i32* %8, align 4
  br label %48

48:                                               ; preds = %44, %39
  %49 = load i32, i32* %4, align 4
  %50 = add nsw i32 %49, 1
  store i32 %50, i32* %4, align 4
  br label %51

51:                                               ; preds = %48, %15
  %52 = load i32, i32* %2, align 4
  %53 = add nsw i32 %52, 1
  store i32 %53, i32* %2, align 4
  br label %10

54:                                               ; preds = %10
  %55 = load i32, i32* %7, align 4
  %56 = sext i32 %55 to i64
  %57 = getelementptr inbounds [200 x [20 x i8]], [200 x [20 x i8]]* @word, i64 0, i64 %56
  %58 = getelementptr inbounds [20 x i8], [20 x i8]* %57, i64 0, i64 0
  %59 = load i32, i32* %8, align 4
  %60 = sext i32 %59 to i64
  %61 = getelementptr inbounds [200 x [20 x i8]], [200 x [20 x i8]]* @word, i64 0, i64 %60
  %62 = getelementptr inbounds [20 x i8], [20 x i8]* %61, i64 0, i64 0
  %63 = call i32 (i8*, ...) @printf(i8* getelementptr inbounds ([6 x i8], [6 x i8]* @.str, i64 0, i64 0), i8* %58, i8* %62)
  %64 = call i32 (i8*, ...) @__isoc99_scanf(i8* getelementptr inbounds ([3 x i8], [3 x i8]* @.str.1, i64 0, i64 0), i32* %2)
  ret i32 0
}

declare dso_local i32 @gets(...) #2

; Function Attrs: nounwind
declare dso_local i8* @strncpy(i8*, i8*, i64) #3

declare dso_local i32 @printf(i8*, ...) #2

declare dso_local i32 @__isoc99_scanf(i8*, ...) #2


!llvm.module.flags = !{!0}
!llvm.ident = !{!1}

!0 = !{i32 1, !"wchar_size", i32 4}
!1 = !{!"clang version 10.0.0-4ubuntu1 "}
